(dp0
S'scale_u_b_max'
p1
F100.0
sS'pvd_vars'
p2
(lp3
S'pfo'
p4
aS'h'
p5
asS'scale_k'
p6
I00
sS'scale_k_max'
p7
F0.005
sS'scale_m'
p8
I01
sS'scale_u_b'
p9
I01
sS'scale_k_min'
p10
F5e-05
sS'scale_lag_time'
p11
F0.0
sS'checkpoint_vars'
p12
(lp13
g5
ag4
aS'q'
p14
aS'u_b'
p15
aS'm'
p16
aS'k'
p17
asS'scale_shutoff_length'
p18
F2592000.0
sS'checkpoint_interval'
p19
I24
sS'pvd_interval'
p20
I480
sS'constraints'
p21
I01
s.