(dp0
S'scale_u_b_max'
p1
F100.0
sS'pvd_vars'
p2
(lp3
S'pfo'
p4
aS'h'
p5
asS'scale_k'
p6
I00
sS'scale_k_max'
p7
F0.005
sS'scale_m'
p8
I00
sS'scale_u_b'
p9
I00
sS'scale_k_min'
p10
F5e-05
sS'scale_lag_time'
p11
F0.0
sS'checkpoint_vars'
p12
(lp13
g5
asS'scale_shutoff_length'
p14
F2592000.0
sS'checkpoint_interval'
p15
I30
sS'pvd_interval'
p16
I1
s.