(dp0
S'scale_u_b_max'
p1
F100.0
sS'pvd_vars'
p2
(lp3
S'pfo'
p4
aS'h'
p5
asS'scale_k'
p6
I00
sS'scale_k_max'
p7
F0.005
sS'scale_m'
p8
I00
sS'scale_u_b'
p9
I01
sS'scale_k_min'
p10
F5e-05
sS'checkpoint_vars'
p11
(lp12
g5
ag4
aS'q'
p13
aS'u_b'
p14
aS'm'
p15
aS'k'
p16
asS'checkpoint_interval'
p17
I24
sS'pvd_interval'
p18
I1
s.